target datalayout = "e-m:e-p270:32:32-p271:32:32-p272:64:64-i64:64-i128:128-f80:128-n8:16:32:64-S128"
target triple = "x86_64-pc-linux-gnu"

%struct.playTracePBN = type { i32, [106 x i8] }
%struct.playTraceBin = type { i32, [52 x i32], [52 x i32] }

; Function Attrs: mustprogress nounwind uwtable
define noundef i32 @_Z18ConvertPlayFromPBNRK12playTracePBNR12playTraceBin(ptr noundef nonnull align 4 dereferenceable(112) %0, ptr noundef nonnull align 4 dereferenceable(420) %1) #1 {
  %3 = alloca i32, align 4
  %4 = alloca ptr, align 8
  %5 = alloca ptr, align 8
  %6 = alloca i32, align 4
  %7 = alloca i32, align 4
  %8 = alloca i8, align 1
  %9 = alloca i32, align 4
  %10 = alloca i32, align 4
  store ptr %0, ptr %4, align 8
  store ptr %1, ptr %5, align 8
  %11 = load ptr, ptr %4, align 8
  %12 = getelementptr inbounds nuw %struct.playTracePBN, ptr %11, i32 0, i32 0
  %13 = load i32, ptr %12, align 4
  store i32 %13, ptr %6, align 4
  %14 = load i32, ptr %6, align 4
  %15 = icmp slt i32 %14, 0
  br i1 %15, label %19, label %16

16:                                               ; preds = %2
  %17 = load i32, ptr %6, align 4
  %18 = icmp sgt i32 %17, 52
  br i1 %18, label %19, label %20

19:                                               ; preds = %16, %2
  store i32 -98, ptr %3, align 4
  br label %106

20:                                               ; preds = %16
  %21 = load i32, ptr %6, align 4
  %22 = load ptr, ptr %5, align 8
  %23 = getelementptr inbounds nuw %struct.playTraceBin, ptr %22, i32 0, i32 0
  store i32 %21, ptr %23, align 4
  store i32 0, ptr %7, align 4
  br label %24

24:                                               ; preds = %102, %20
  %25 = load i32, ptr %7, align 4
  %26 = load i32, ptr %6, align 4
  %27 = mul nsw i32 2, %26
  %28 = icmp slt i32 %25, %27
  br i1 %28, label %29, label %105

29:                                               ; preds = %24
  %30 = load ptr, ptr %4, align 8
  %31 = getelementptr inbounds nuw %struct.playTracePBN, ptr %30, i32 0, i32 1
  %32 = load i32, ptr %7, align 4
  %33 = sext i32 %32 to i64
  %34 = getelementptr inbounds [106 x i8], ptr %31, i64 0, i64 %33
  %35 = load i8, ptr %34, align 1
  store i8 %35, ptr %8, align 1
  %36 = load i8, ptr %8, align 1
  %37 = sext i8 %36 to i32
  %38 = icmp eq i32 %37, 115
  br i1 %38, label %43, label %39

39:                                               ; preds = %29
  %40 = load i8, ptr %8, align 1
  %41 = sext i8 %40 to i32
  %42 = icmp eq i32 %41, 83
  br i1 %42, label %43, label %44

43:                                               ; preds = %39, %29
  store i32 0, ptr %9, align 4
  br label %75

44:                                               ; preds = %39
  %45 = load i8, ptr %8, align 1
  %46 = sext i8 %45 to i32
  %47 = icmp eq i32 %46, 104
  br i1 %47, label %52, label %48

48:                                               ; preds = %44
  %49 = load i8, ptr %8, align 1
  %50 = sext i8 %49 to i32
  %51 = icmp eq i32 %50, 72
  br i1 %51, label %52, label %53

52:                                               ; preds = %48, %44
  store i32 1, ptr %9, align 4
  br label %74

53:                                               ; preds = %48
  %54 = load i8, ptr %8, align 1
  %55 = sext i8 %54 to i32
  %56 = icmp eq i32 %55, 100
  br i1 %56, label %61, label %57

57:                                               ; preds = %53
  %58 = load i8, ptr %8, align 1
  %59 = sext i8 %58 to i32
  %60 = icmp eq i32 %59, 68
  br i1 %60, label %61, label %62

61:                                               ; preds = %57, %53
  store i32 2, ptr %9, align 4
  br label %73

62:                                               ; preds = %57
  %63 = load i8, ptr %8, align 1
  %64 = sext i8 %63 to i32
  %65 = icmp eq i32 %64, 99
  br i1 %65, label %70, label %66

66:                                               ; preds = %62
  %67 = load i8, ptr %8, align 1
  %68 = sext i8 %67 to i32
  %69 = icmp eq i32 %68, 67
  br i1 %69, label %70, label %71

70:                                               ; preds = %66, %62
  store i32 3, ptr %9, align 4
  br label %72

71:                                               ; preds = %66
  store i32 -98, ptr %3, align 4
  br label %106

72:                                               ; preds = %70
  br label %73

73:                                               ; preds = %72, %61
  br label %74

74:                                               ; preds = %73, %52
  br label %75

75:                                               ; preds = %74, %43
  %76 = load i32, ptr %9, align 4
  %77 = load ptr, ptr %5, align 8
  %78 = getelementptr inbounds nuw %struct.playTraceBin, ptr %77, i32 0, i32 1
  %79 = load i32, ptr %7, align 4
  %80 = ashr i32 %79, 1
  %81 = sext i32 %80 to i64
  %82 = getelementptr inbounds [52 x i32], ptr %78, i64 0, i64 %81
  store i32 %76, ptr %82, align 4
  %83 = load ptr, ptr %4, align 8
  %84 = getelementptr inbounds nuw %struct.playTracePBN, ptr %83, i32 0, i32 1
  %85 = load i32, ptr %7, align 4
  %86 = add nsw i32 %85, 1
  %87 = sext i32 %86 to i64
  %88 = getelementptr inbounds [106 x i8], ptr %84, i64 0, i64 %87
  %89 = load i8, ptr %88, align 1
  %90 = call noundef i32 @_Z6IsCardc(i8 noundef signext %89)
  store i32 %90, ptr %10, align 4
  %91 = load i32, ptr %10, align 4
  %92 = icmp eq i32 %91, 0
  br i1 %92, label %93, label %94

93:                                               ; preds = %75
  store i32 -98, ptr %3, align 4
  br label %106

94:                                               ; preds = %75
  %95 = load i32, ptr %10, align 4
  %96 = load ptr, ptr %5, align 8
  %97 = getelementptr inbounds nuw %struct.playTraceBin, ptr %96, i32 0, i32 2
  %98 = load i32, ptr %7, align 4
  %99 = ashr i32 %98, 1
  %100 = sext i32 %99 to i64
  %101 = getelementptr inbounds [52 x i32], ptr %97, i64 0, i64 %100
  store i32 %95, ptr %101, align 4
  br label %102

102:                                              ; preds = %94
  %103 = load i32, ptr %7, align 4
  %104 = add nsw i32 %103, 2
  store i32 %104, ptr %7, align 4
  br label %24, !llvm.loop !9

105:                                              ; preds = %24
  store i32 1, ptr %3, align 4
  br label %106

106:                                              ; preds = %105, %93, %71, %19
  %107 = load i32, ptr %3, align 4
  ret i32 %107
}