; Function Attrs: mustprogress nofree norecurse nosync nounwind memory(argmem: readwrite) uwtable
define noundef range(i32 -98, 2) i32 @_Z18ConvertPlayFromPBNRK12playTracePBNR12playTraceBin(ptr nocapture noundef nonnull readonly align 4 dereferenceable(112) %0, ptr nocapture noundef nonnull writeonly align 4 dereferenceable(420) %1) local_unnamed_addr #2 {
  %3 = load i32, ptr %0, align 4
  %or.cond = icmp ugt i32 %3, 52
  br i1 %or.cond, label %.loopexit, label %4

4:                                                ; preds = %2
  store i32 %3, ptr %1, align 4
  %.not = icmp eq i32 %3, 0
  br i1 %.not, label %.loopexit, label %.lr.ph

.lr.ph:                                           ; preds = %4
  %5 = shl nuw nsw i32 %3, 1
  %6 = getelementptr inbounds nuw i8, ptr %0, i64 4
  %7 = getelementptr inbounds nuw i8, ptr %1, i64 4
  %8 = getelementptr inbounds nuw i8, ptr %1, i64 212
  %9 = zext nneg i32 %5 to i64
  br label %10

10:                                               ; preds = %.lr.ph, %22
  %indvars.iv = phi i64 [ 0, %.lr.ph ], [ %indvars.iv.next, %22 ]
  %11 = getelementptr inbounds [106 x i8], ptr %6, i64 0, i64 %indvars.iv
  %12 = load i8, ptr %11, align 2
  %13 = and i8 %12, -33
  switch i8 %13, label %.loopexit [
    i8 83, label %14
    i8 72, label %.fold.split
    i8 68, label %.fold.split45
    i8 67, label %.fold.split46
  ]

.fold.split:                                      ; preds = %10
  br label %14

.fold.split45:                                    ; preds = %10
  br label %14

.fold.split46:                                    ; preds = %10
  br label %14

14:                                               ; preds = %10, %.fold.split46, %.fold.split45, %.fold.split
  %.040 = phi i32 [ 0, %10 ], [ 1, %.fold.split ], [ 2, %.fold.split45 ], [ 3, %.fold.split46 ]
  %15 = lshr exact i64 %indvars.iv, 1
  %16 = getelementptr inbounds [52 x i32], ptr %7, i64 0, i64 %15
  store i32 %.040, ptr %16, align 4
  %17 = or disjoint i64 %indvars.iv, 1
  %18 = getelementptr inbounds [106 x i8], ptr %6, i64 0, i64 %17
  %19 = load i8, ptr %18, align 1
  %20 = tail call noundef i32 @_Z6IsCardc(i8 noundef signext %19)
  %21 = icmp eq i32 %20, 0
  br i1 %21, label %.loopexit, label %22

22:                                               ; preds = %14
  %23 = getelementptr inbounds [52 x i32], ptr %8, i64 0, i64 %15
  store i32 %20, ptr %23, align 4
  %indvars.iv.next = add nuw nsw i64 %indvars.iv, 2
  %24 = icmp ult i64 %indvars.iv.next, %9
  br i1 %24, label %10, label %.loopexit, !llvm.loop !7

.loopexit:                                        ; preds = %14, %22, %10, %4, %2
  %.0 = phi i32 [ -98, %2 ], [ 1, %4 ], [ -98, %14 ], [ 1, %22 ], [ -98, %10 ]
  ret i32 %.0
}